target datalayout = "e-m:e-p270:32:32-p271:32:32-p272:64:64-i64:64-i128:128-f80:128-n8:16:32:64-S128"
target triple = "x86_64-pc-linux-gnu"

%struct.List = type { i32, i32, i32, ptr, [0 x %union.ListCell] }
%union.ListCell = type { ptr }
%struct.ForEachState = type { ptr, i32 }
%struct.ReindexParams = type { i32, i32 }

@.str.1 = private unnamed_addr constant [12 x i8] c"indexcmds.c\00", align 1
@MyDatabaseTableSpace = external global i32, align 4
@.str.91 = private unnamed_addr constant [28 x i8] c"table \22%s.%s\22 was reindexed\00", align 1
@__func__.ReindexMultipleInternal = private unnamed_addr constant [24 x i8] c"ReindexMultipleInternal\00", align 1

; Function Attrs: inlinehint nounwind uwtable
define internal i64 @ObjectIdGetDatum(i32 noundef %0) #3 {
  %2 = alloca i32, align 4
  store i32 %0, ptr %2, align 4
  %3 = load i32, ptr %2, align 4
  %4 = zext i32 %3 to i64
  ret i64 %4
}

; Function Attrs: nounwind uwtable
define internal void @ReindexMultipleInternal(ptr noundef %0, ptr noundef %1, ptr noundef %2) #0 {
  %4 = alloca ptr, align 8
  %5 = alloca ptr, align 8
  %6 = alloca ptr, align 8
  %7 = alloca ptr, align 8
  %8 = alloca %struct.ForEachState, align 8
  %9 = alloca i32, align 4
  %10 = alloca i32, align 4
  %11 = alloca i8, align 1
  %12 = alloca i8, align 1
  %13 = alloca i32, align 4
  %14 = alloca %struct.ReindexParams, align 4
  %15 = alloca %struct.ReindexParams, align 4
  %16 = alloca i8, align 1
  %17 = alloca %struct.ReindexParams, align 4
  store ptr %0, ptr %4, align 8
  store ptr %1, ptr %5, align 8
  store ptr %2, ptr %6, align 8
  call void @llvm.lifetime.start.p0(i64 8, ptr %7) #10
  call void @PopActiveSnapshot()
  call void @CommitTransactionCommand()
  call void @llvm.lifetime.start.p0(i64 16, ptr %8) #10
  %18 = getelementptr inbounds nuw %struct.ForEachState, ptr %8, i32 0, i32 0
  %19 = load ptr, ptr %5, align 8
  store ptr %19, ptr %18, align 8
  %20 = getelementptr inbounds nuw %struct.ForEachState, ptr %8, i32 0, i32 1
  store i32 0, ptr %20, align 8
  %21 = getelementptr i8, ptr %8, i64 12
  call void @llvm.memset.p0.i64(ptr align 4 %21, i8 0, i64 4, i1 false)
  br label %22

22:                                               ; preds = %158, %3
  %23 = getelementptr inbounds nuw %struct.ForEachState, ptr %8, i32 0, i32 0
  %24 = load ptr, ptr %23, align 8
  %25 = icmp ne ptr %24, null
  br i1 %25, label %26, label %43

26:                                               ; preds = %22
  %27 = getelementptr inbounds nuw %struct.ForEachState, ptr %8, i32 0, i32 1
  %28 = load i32, ptr %27, align 8
  %29 = getelementptr inbounds nuw %struct.ForEachState, ptr %8, i32 0, i32 0
  %30 = load ptr, ptr %29, align 8
  %31 = getelementptr inbounds nuw %struct.List, ptr %30, i32 0, i32 1
  %32 = load i32, ptr %31, align 4
  %33 = icmp slt i32 %28, %32
  br i1 %33, label %34, label %43

34:                                               ; preds = %26
  %35 = getelementptr inbounds nuw %struct.ForEachState, ptr %8, i32 0, i32 0
  %36 = load ptr, ptr %35, align 8
  %37 = getelementptr inbounds nuw %struct.List, ptr %36, i32 0, i32 3
  %38 = load ptr, ptr %37, align 8
  %39 = getelementptr inbounds nuw %struct.ForEachState, ptr %8, i32 0, i32 1
  %40 = load i32, ptr %39, align 8
  %41 = sext i32 %40 to i64
  %42 = getelementptr inbounds %union.ListCell, ptr %38, i64 %41
  store ptr %42, ptr %7, align 8
  br label %44

43:                                               ; preds = %26, %22
  store ptr null, ptr %7, align 8
  br label %44

44:                                               ; preds = %43, %34
  %45 = phi i32 [ 1, %34 ], [ 0, %43 ]
  %46 = icmp ne i32 %45, 0
  br i1 %46, label %48, label %47

47:                                               ; preds = %44
  store i32 2, ptr %9, align 4
  call void @llvm.lifetime.end.p0(i64 16, ptr %8) #10
  br label %162

48:                                               ; preds = %44
  call void @llvm.lifetime.start.p0(i64 4, ptr %10) #10
  %49 = load ptr, ptr %7, align 8
  %50 = load i32, ptr %49, align 8
  store i32 %50, ptr %10, align 4
  call void @llvm.lifetime.start.p0(i64 1, ptr %11) #10
  call void @llvm.lifetime.start.p0(i64 1, ptr %12) #10
  call void @StartTransactionCommand()
  %51 = call ptr @GetTransactionSnapshot()
  call void @PushActiveSnapshot(ptr noundef %51)
  %52 = load i32, ptr %10, align 4
  %53 = call i64 @ObjectIdGetDatum(i32 noundef %52)
  %54 = call zeroext i1 @SearchSysCacheExists(i32 noundef 57, i64 noundef %53, i64 noundef 0, i64 noundef 0, i64 noundef 0)
  br i1 %54, label %56, label %55

55:                                               ; preds = %48
  call void @PopActiveSnapshot()
  call void @CommitTransactionCommand()
  store i32 4, ptr %9, align 4
  br label %155

56:                                               ; preds = %48
  %57 = load ptr, ptr %6, align 8
  %58 = getelementptr inbounds nuw %struct.ReindexParams, ptr %57, i32 0, i32 1
  %59 = load i32, ptr %58, align 4
  %60 = icmp ne i32 %59, 0
  br i1 %60, label %61, label %82

61:                                               ; preds = %56
  %62 = load ptr, ptr %6, align 8
  %63 = getelementptr inbounds nuw %struct.ReindexParams, ptr %62, i32 0, i32 1
  %64 = load i32, ptr %63, align 4
  %65 = load i32, ptr @MyDatabaseTableSpace, align 4
  %66 = icmp ne i32 %64, %65
  br i1 %66, label %67, label %82

67:                                               ; preds = %61
  call void @llvm.lifetime.start.p0(i64 4, ptr %13) #10
  %68 = load ptr, ptr %6, align 8
  %69 = getelementptr inbounds nuw %struct.ReindexParams, ptr %68, i32 0, i32 1
  %70 = load i32, ptr %69, align 4
  %71 = call i32 @GetUserId()
  %72 = call i32 @object_aclcheck(i32 noundef 1213, i32 noundef %70, i32 noundef %71, i64 noundef 512)
  store i32 %72, ptr %13, align 4
  %73 = load i32, ptr %13, align 4
  %74 = icmp ne i32 %73, 0
  br i1 %74, label %75, label %81

75:                                               ; preds = %67
  %76 = load i32, ptr %13, align 4
  %77 = load ptr, ptr %6, align 8
  %78 = getelementptr inbounds nuw %struct.ReindexParams, ptr %77, i32 0, i32 1
  %79 = load i32, ptr %78, align 4
  %80 = call ptr @get_tablespace_name(i32 noundef %79)
  call void @aclcheck_error(i32 noundef %76, i32 noundef 42, ptr noundef %80)
  br label %81

81:                                               ; preds = %75, %67
  call void @llvm.lifetime.end.p0(i64 4, ptr %13) #10
  br label %82

82:                                               ; preds = %81, %61, %56
  %83 = load i32, ptr %10, align 4
  %84 = call signext i8 @get_rel_relkind(i32 noundef %83)
  store i8 %84, ptr %11, align 1
  %85 = load i32, ptr %10, align 4
  %86 = call signext i8 @get_rel_persistence(i32 noundef %85)
  store i8 %86, ptr %12, align 1
  %87 = load ptr, ptr %6, align 8
  %88 = getelementptr inbounds nuw %struct.ReindexParams, ptr %87, i32 0, i32 0
  %89 = load i32, ptr %88, align 4
  %90 = and i32 %89, 8
  %91 = icmp ne i32 %90, 0
  br i1 %91, label %92, label %107

92:                                               ; preds = %82
  %93 = load i8, ptr %12, align 1
  %94 = sext i8 %93 to i32
  %95 = icmp ne i32 %94, 116
  br i1 %95, label %96, label %107

96:                                               ; preds = %92
  call void @llvm.lifetime.start.p0(i64 8, ptr %14) #10
  %97 = load ptr, ptr %6, align 8
  call void @llvm.memcpy.p0.p0.i64(ptr align 4 %14, ptr align 4 %97, i64 8, i1 false)
  %98 = getelementptr inbounds nuw %struct.ReindexParams, ptr %14, i32 0, i32 0
  %99 = load i32, ptr %98, align 4
  %100 = or i32 %99, 4
  store i32 %100, ptr %98, align 4
  %101 = load ptr, ptr %4, align 8
  %102 = load i32, ptr %10, align 4
  %103 = call zeroext i1 @ReindexRelationConcurrently(ptr noundef %101, i32 noundef %102, ptr noundef %14)
  %104 = call zeroext i1 @ActiveSnapshotSet()
  br i1 %104, label %105, label %106

105:                                              ; preds = %96
  call void @PopActiveSnapshot()
  br label %106

106:                                              ; preds = %105, %96
  call void @llvm.lifetime.end.p0(i64 8, ptr %14) #10
  br label %154

107:                                              ; preds = %92, %82
  %108 = load i8, ptr %11, align 1
  %109 = sext i8 %108 to i32
  %110 = icmp eq i32 %109, 105
  br i1 %110, label %111, label %119

111:                                              ; preds = %107
  call void @llvm.lifetime.start.p0(i64 8, ptr %15) #10
  %112 = load ptr, ptr %6, align 8
  call void @llvm.memcpy.p0.p0.i64(ptr align 4 %15, ptr align 4 %112, i64 8, i1 false)
  %113 = getelementptr inbounds nuw %struct.ReindexParams, ptr %15, i32 0, i32 0
  %114 = load i32, ptr %113, align 4
  %115 = or i32 %114, 6
  store i32 %115, ptr %113, align 4
  %116 = load ptr, ptr %4, align 8
  %117 = load i32, ptr %10, align 4
  %118 = load i8, ptr %12, align 1
  call void @reindex_index(ptr noundef %116, i32 noundef %117, i1 noundef zeroext false, i8 noundef signext %118, ptr noundef %15)
  call void @PopActiveSnapshot()
  call void @llvm.lifetime.end.p0(i64 8, ptr %15) #10
  br label %153

119:                                              ; preds = %107
  call void @llvm.lifetime.start.p0(i64 1, ptr %16) #10
  call void @llvm.lifetime.start.p0(i64 8, ptr %17) #10
  %120 = load ptr, ptr %6, align 8
  call void @llvm.memcpy.p0.p0.i64(ptr align 4 %17, ptr align 4 %120, i64 8, i1 false)
  %121 = getelementptr inbounds nuw %struct.ReindexParams, ptr %17, i32 0, i32 0
  %122 = load i32, ptr %121, align 4
  %123 = or i32 %122, 6
  store i32 %123, ptr %121, align 4
  %124 = load ptr, ptr %4, align 8
  %125 = load i32, ptr %10, align 4
  %126 = call zeroext i1 @reindex_relation(ptr noundef %124, i32 noundef %125, i32 noundef 5, ptr noundef %17)
  %127 = zext i1 %126 to i8
  store i8 %127, ptr %16, align 1
  %128 = load i8, ptr %16, align 1, !range !4, !noundef !5
  %129 = trunc i8 %128 to i1
  br i1 %129, label %130, label %152

130:                                              ; preds = %119
  %131 = load ptr, ptr %6, align 8
  %132 = getelementptr inbounds nuw %struct.ReindexParams, ptr %131, i32 0, i32 0
  %133 = load i32, ptr %132, align 4
  %134 = and i32 %133, 1
  %135 = icmp ne i32 %134, 0
  br i1 %135, label %136, label %152

136:                                              ; preds = %130
  br label %137

137:                                              ; preds = %136
  br i1 false, label %138, label %140

138:                                              ; preds = %137
  %139 = call zeroext i1 @errstart_cold(i32 noundef 17, ptr noundef null) #11
  br i1 %139, label %142, label %149

140:                                              ; preds = %137
  %141 = call zeroext i1 @errstart(i32 noundef 17, ptr noundef null)
  br i1 %141, label %142, label %149

142:                                              ; preds = %140, %138
  %143 = load i32, ptr %10, align 4
  %144 = call i32 @get_rel_namespace(i32 noundef %143)
  %145 = call ptr @get_namespace_name(i32 noundef %144)
  %146 = load i32, ptr %10, align 4
  %147 = call ptr @get_rel_name(i32 noundef %146)
  %148 = call i32 (ptr, ...) @errmsg(ptr noundef @.str.91, ptr noundef %145, ptr noundef %147)
  call void @errfinish(ptr noundef @.str.1, i32 noundef 3504, ptr noundef @__func__.ReindexMultipleInternal)
  br label %149

149:                                              ; preds = %142, %140, %138
  br label %150

150:                                              ; preds = %149
  br label %151

151:                                              ; preds = %150
  br label %152

152:                                              ; preds = %151, %130, %119
  call void @PopActiveSnapshot()
  call void @llvm.lifetime.end.p0(i64 8, ptr %17) #10
  call void @llvm.lifetime.end.p0(i64 1, ptr %16) #10
  br label %153

153:                                              ; preds = %152, %111
  br label %154

154:                                              ; preds = %153, %106
  call void @CommitTransactionCommand()
  store i32 0, ptr %9, align 4
  br label %155

155:                                              ; preds = %154, %55
  call void @llvm.lifetime.end.p0(i64 1, ptr %12) #10
  call void @llvm.lifetime.end.p0(i64 1, ptr %11) #10
  call void @llvm.lifetime.end.p0(i64 4, ptr %10) #10
  %156 = load i32, ptr %9, align 4
  switch i32 %156, label %163 [
    i32 0, label %157
    i32 4, label %158
  ]

157:                                              ; preds = %155
  br label %158

158:                                              ; preds = %157, %155
  %159 = getelementptr inbounds nuw %struct.ForEachState, ptr %8, i32 0, i32 1
  %160 = load i32, ptr %159, align 8
  %161 = add i32 %160, 1
  store i32 %161, ptr %159, align 8
  br label %22, !llvm.loop !43

162:                                              ; preds = %47
  call void @StartTransactionCommand()
  call void @llvm.lifetime.end.p0(i64 8, ptr %7) #10
  ret void

163:                                              ; preds = %155
  unreachable
}