; Function Attrs: nounwind uwtable
define internal fastcc void @ReindexMultipleInternal(ptr noundef %0, ptr noundef readonly captures(address_is_null) %1, ptr noundef nonnull readonly captures(none) %2) unnamed_addr #0 {
  %4 = alloca %struct.ReindexParams, align 8
  %5 = alloca %struct.ReindexParams, align 8
  %6 = alloca %struct.ReindexParams, align 8
  tail call void @PopActiveSnapshot() #11
  tail call void @CommitTransactionCommand() #11
  %7 = getelementptr inbounds nuw i8, ptr %1, i64 4
  %.not = icmp eq ptr %1, null
  br i1 %.not, label %._crit_edge, label %.lr.ph

.lr.ph:                                           ; preds = %3
  %8 = getelementptr inbounds nuw i8, ptr %1, i64 16
  %9 = getelementptr inbounds nuw i8, ptr %2, i64 4
  %10 = load i32, ptr %7, align 4
  %11 = icmp sgt i32 %10, 0
  br i1 %11, label %.lr.ph48, label %._crit_edge

._crit_edge:                                      ; preds = %65, %.lr.ph, %3
  call void @StartTransactionCommand() #11
  ret void

.lr.ph48:                                         ; preds = %.lr.ph, %65
  %indvars.iv47 = phi i64 [ %indvars.iv.next, %65 ], [ 0, %.lr.ph ]
  %12 = load ptr, ptr %8, align 8
  %13 = getelementptr inbounds nuw %union.ListCell, ptr %12, i64 %indvars.iv47
  %14 = load i32, ptr %13, align 8
  call void @StartTransactionCommand() #11
  %15 = call ptr @GetTransactionSnapshot() #11
  call void @PushActiveSnapshot(ptr noundef %15) #11
  %16 = zext i32 %14 to i64
  %17 = call zeroext i1 @SearchSysCacheExists(i32 noundef 57, i64 noundef %16, i64 noundef 0, i64 noundef 0, i64 noundef 0) #11
  br i1 %17, label %19, label %18

18:                                               ; preds = %.lr.ph48
  call void @PopActiveSnapshot() #11
  br label %65

19:                                               ; preds = %.lr.ph48
  %20 = load i32, ptr %9, align 4
  %.not37 = icmp eq i32 %20, 0
  %21 = load i32, ptr @MyDatabaseTableSpace, align 4
  %.not38 = icmp eq i32 %20, %21
  %or.cond41 = select i1 %.not37, i1 true, i1 %.not38
  br i1 %or.cond41, label %28, label %22

22:                                               ; preds = %19
  %23 = call i32 @GetUserId() #11
  %24 = call i32 @object_aclcheck(i32 noundef 1213, i32 noundef %20, i32 noundef %23, i64 noundef 512) #11
  %.not39 = icmp eq i32 %24, 0
  br i1 %.not39, label %28, label %25

25:                                               ; preds = %22
  %26 = load i32, ptr %9, align 4
  %27 = call ptr @get_tablespace_name(i32 noundef %26) #11
  call void @aclcheck_error(i32 noundef %24, i32 noundef 42, ptr noundef %27) #11
  br label %28

28:                                               ; preds = %22, %25, %19
  %29 = call signext i8 @get_rel_relkind(i32 noundef %14) #11
  %30 = call signext i8 @get_rel_persistence(i32 noundef %14) #11
  %31 = load i32, ptr %2, align 4
  %32 = and i32 %31, 8
  %33 = icmp ne i32 %32, 0
  %34 = icmp ne i8 %30, 116
  %or.cond = select i1 %33, i1 %34, i1 false
  br i1 %or.cond, label %35, label %43

35:                                               ; preds = %28
  call void @llvm.lifetime.start.p0(i64 8, ptr nonnull %4) #11
  %36 = load i64, ptr %2, align 4
  store i64 %36, ptr %4, align 8
  %37 = trunc i64 %36 to i32
  %38 = or i32 %37, 4
  store i32 %38, ptr %4, align 8
  %39 = call fastcc zeroext i1 @ReindexRelationConcurrently(ptr noundef %0, i32 noundef %14, ptr noundef %4)
  %40 = call zeroext i1 @ActiveSnapshotSet() #11
  br i1 %40, label %41, label %42

41:                                               ; preds = %35
  call void @PopActiveSnapshot() #11
  br label %42

42:                                               ; preds = %41, %35
  call void @llvm.lifetime.end.p0(i64 8, ptr nonnull %4) #11
  br label %65

43:                                               ; preds = %28
  %44 = icmp eq i8 %29, 105
  br i1 %44, label %45, label %49

45:                                               ; preds = %43
  call void @llvm.lifetime.start.p0(i64 8, ptr nonnull %5) #11
  %46 = load i64, ptr %2, align 4
  store i64 %46, ptr %5, align 8
  %47 = trunc i64 %46 to i32
  %48 = or i32 %47, 6
  store i32 %48, ptr %5, align 8
  call void @reindex_index(ptr noundef %0, i32 noundef %14, i1 noundef zeroext false, i8 noundef signext %30, ptr noundef nonnull %5) #11
  call void @PopActiveSnapshot() #11
  call void @llvm.lifetime.end.p0(i64 8, ptr nonnull %5) #11
  br label %65

49:                                               ; preds = %43
  call void @llvm.lifetime.start.p0(i64 8, ptr nonnull %6) #11
  %50 = load i64, ptr %2, align 4
  store i64 %50, ptr %6, align 8
  %51 = trunc i64 %50 to i32
  %52 = or i32 %51, 6
  store i32 %52, ptr %6, align 8
  %53 = call zeroext i1 @reindex_relation(ptr noundef %0, i32 noundef %14, i32 noundef 5, ptr noundef nonnull %6) #11
  br i1 %53, label %54, label %64

54:                                               ; preds = %49
  %55 = load i32, ptr %2, align 4
  %56 = and i32 %55, 1
  %.not40 = icmp eq i32 %56, 0
  br i1 %.not40, label %64, label %57

57:                                               ; preds = %54
  %58 = call zeroext i1 @errstart(i32 noundef 17, ptr noundef null) #11
  br i1 %58, label %59, label %64

59:                                               ; preds = %57
  %60 = call i32 @get_rel_namespace(i32 noundef %14) #11
  %61 = call ptr @get_namespace_name(i32 noundef %60) #11
  %62 = call ptr @get_rel_name(i32 noundef %14) #11
  %63 = call i32 (ptr, ...) @errmsg(ptr noundef nonnull @.str.91, ptr noundef %61, ptr noundef %62) #11
  call void @errfinish(ptr noundef nonnull @.str.1, i32 noundef 3504, ptr noundef nonnull @__func__.ReindexMultipleInternal) #11
  br label %64

64:                                               ; preds = %57, %59, %54, %49
  call void @PopActiveSnapshot() #11
  call void @llvm.lifetime.end.p0(i64 8, ptr nonnull %6) #11
  br label %65

65:                                               ; preds = %42, %64, %45, %18
  call void @CommitTransactionCommand() #11
  %indvars.iv.next = add nuw nsw i64 %indvars.iv47, 1
  %66 = load i32, ptr %7, align 4
  %67 = sext i32 %66 to i64
  %68 = icmp slt i64 %indvars.iv.next, %67
  br i1 %68, label %.lr.ph48, label %._crit_edge
}